target datalayout = "e-m:e-p270:32:32-p271:32:32-p272:64:64-i64:64-i128:128-f80:128-n8:16:32:64-S128"
target triple = "x86_64-pc-linux-gnu"

%class.RecordComponent = type <{ ptr, ptr, i16, i16, i16, [2 x i8] }>
%class.Array = type <{ i32, [1 x i8], [3 x i8] }>

; Function Attrs: mustprogress nounwind uwtable
define linkonce_odr hidden noundef i32 @_Z4MAX2IiET_S0_S0_(i32 noundef %0, i32 noundef %1) #1 comdat {
  %3 = alloca i32, align 4
  %4 = alloca i32, align 4
  store i32 %0, ptr %3, align 4
  store i32 %1, ptr %4, align 4
  %5 = load i32, ptr %3, align 4
  %6 = load i32, ptr %4, align 4
  %7 = icmp sgt i32 %5, %6
  br i1 %7, label %8, label %10

8:                                                ; preds = %2
  %9 = load i32, ptr %3, align 4
  br label %12

10:                                               ; preds = %2
  %11 = load i32, ptr %4, align 4
  br label %12

12:                                               ; preds = %10, %8
  %13 = phi i32 [ %9, %8 ], [ %11, %10 ]
  ret i32 %13
}

; Function Attrs: mustprogress nounwind uwtable
define linkonce_odr hidden noundef i64 @_Z10align_downImiTnNSt9enable_ifIXcvbsr3std11is_integralIT_EE5valueEiE4typeELi0EES1_S1_T0_(i64 noundef %0, i32 noundef %1) #1 comdat {
  %3 = alloca i64, align 8
  %4 = alloca i32, align 4
  %5 = alloca i64, align 8
  store i64 %0, ptr %3, align 8
  store i32 %1, ptr %4, align 4
  %6 = load i64, ptr %3, align 8
  %7 = load i32, ptr %4, align 4
  %8 = call noundef i32 @_ZL14alignment_maskIiTnNSt9enable_ifIXcvbsr3std11is_integralIT_EE5valueEiE4typeELi0EES1_S1_(i32 noundef %7)
  %9 = sext i32 %8 to i64
  %10 = xor i64 %9, -1
  %11 = and i64 %6, %10
  store i64 %11, ptr %5, align 8
  %12 = load i64, ptr %5, align 8
  ret i64 %12
}

; Function Attrs: mustprogress nounwind uwtable
define linkonce_odr hidden noundef i64 @_Z12checked_castImmET_T0_(i64 noundef %0) #1 comdat {
  %2 = alloca i64, align 8
  %3 = alloca i64, align 8
  store i64 %0, ptr %2, align 8
  %4 = load i64, ptr %2, align 8
  store i64 %4, ptr %3, align 8
  %5 = load i64, ptr %3, align 8
  ret i64 %5
}

; Function Attrs: mustprogress nounwind uwtable
define internal noundef i32 @_ZL14alignment_maskIiTnNSt9enable_ifIXcvbsr3std11is_integralIT_EE5valueEiE4typeELi0EES1_S1_(i32 noundef %0) #1 {
  %2 = alloca i32, align 4
  store i32 %0, ptr %2, align 4
  %3 = load i32, ptr %2, align 4
  %4 = sub nsw i32 %3, 1
  ret i32 %4
}

; Function Attrs: mustprogress nounwind uwtable
define linkonce_odr hidden noundef i64 @_ZN5ArrayIhE11byte_sizeofEim(i32 noundef %0, i64 noundef %1) #1 comdat align 2 {
  %3 = alloca i32, align 4
  %4 = alloca i64, align 8
  store i32 %0, ptr %3, align 4
  store i64 %1, ptr %4, align 8
  %5 = load i32, ptr %3, align 4
  %6 = sub nsw i32 %5, 1
  %7 = call noundef i32 @_Z4MAX2IiET_S0_S0_(i32 noundef %6, i32 noundef 0)
  %8 = sext i32 %7 to i64
  %9 = load i64, ptr %4, align 8
  %10 = mul i64 %8, %9
  %11 = add i64 8, %10
  ret i64 %11
}

; Function Attrs: mustprogress nounwind uwtable
define linkonce_odr hidden noundef i64 @_Z8align_upImiTnNSt9enable_ifIXcvbsr3std11is_integralIT_EE5valueEiE4typeELi0EES1_S1_T0_(i64 noundef %0, i32 noundef %1) #1 comdat {
  %3 = alloca i64, align 8
  %4 = alloca i32, align 4
  %5 = alloca i64, align 8
  store i64 %0, ptr %3, align 8
  store i32 %1, ptr %4, align 4
  %6 = load i64, ptr %3, align 8
  %7 = load i32, ptr %4, align 4
  %8 = call noundef i32 @_ZL14alignment_maskIiTnNSt9enable_ifIXcvbsr3std11is_integralIT_EE5valueEiE4typeELi0EES1_S1_(i32 noundef %7)
  %9 = sext i32 %8 to i64
  %10 = add i64 %6, %9
  %11 = call noundef i64 @_Z12checked_castImmET_T0_(i64 noundef %10)
  store i64 %11, ptr %5, align 8
  %12 = load i64, ptr %5, align 8
  %13 = load i32, ptr %4, align 4
  %14 = call noundef i64 @_Z10align_downImiTnNSt9enable_ifIXcvbsr3std11is_integralIT_EE5valueEiE4typeELi0EES1_S1_T0_(i64 noundef %12, i32 noundef %13)
  ret i64 %14
}

; Function Attrs: mustprogress nounwind uwtable
define linkonce_odr hidden noundef i64 @_ZN5ArrayIhE11byte_sizeofEi(i32 noundef %0) #1 comdat align 2 {
  %2 = alloca i32, align 4
  store i32 %0, ptr %2, align 4
  %3 = load i32, ptr %2, align 4
  %4 = call noundef i64 @_ZN5ArrayIhE11byte_sizeofEim(i32 noundef %3, i64 noundef 1)
  ret i64 %4
}

; Function Attrs: mustprogress nounwind uwtable
define linkonce_odr hidden noundef i32 @_ZN5ArrayIhE4sizeEi(i32 noundef %0) #1 comdat align 2 {
  %2 = alloca i32, align 4
  %3 = alloca i64, align 8
  %4 = alloca i64, align 8
  store i32 %0, ptr %2, align 4
  %5 = load i32, ptr %2, align 4
  %6 = call noundef i64 @_ZN5ArrayIhE11byte_sizeofEi(i32 noundef %5)
  %7 = call noundef i64 @_Z8align_upImiTnNSt9enable_ifIXcvbsr3std11is_integralIT_EE5valueEiE4typeELi0EES1_S1_T0_(i64 noundef %6, i32 noundef 8)
  store i64 %7, ptr %3, align 8
  %8 = load i64, ptr %3, align 8
  %9 = udiv i64 %8, 8
  store i64 %9, ptr %4, align 8
  %10 = load i64, ptr %4, align 8
  %11 = trunc i64 %10 to i32
  ret i32 %11
}

; Function Attrs: mustprogress nounwind uwtable
define linkonce_odr hidden noundef i32 @_ZN5ArrayIhE4sizeEv(ptr noundef nonnull align 4 dereferenceable(5) %0) #1 comdat align 2 {
  %2 = alloca ptr, align 8
  store ptr %0, ptr %2, align 8
  %3 = load ptr, ptr %2, align 8
  %4 = getelementptr inbounds %class.Array, ptr %3, i32 0, i32 0
  %5 = load i32, ptr %4, align 4
  %6 = call noundef i32 @_ZN5ArrayIhE4sizeEi(i32 noundef %5)
  ret i32 %6
}

; Function Attrs: mustprogress nounwind uwtable
define linkonce_odr hidden noundef ptr @_ZNK15RecordComponent16type_annotationsEv(ptr noundef nonnull align 8 dereferenceable(22) %0) #1 comdat align 2 {
  %2 = alloca ptr, align 8
  store ptr %0, ptr %2, align 8
  %3 = load ptr, ptr %2, align 8
  %4 = getelementptr inbounds %class.RecordComponent, ptr %3, i32 0, i32 1
  %5 = load ptr, ptr %4, align 8
  ret ptr %5
}

; Function Attrs: mustprogress nounwind uwtable
define linkonce_odr hidden void @_ZN15MetadataFactory10free_arrayIhEEvP15ClassLoaderDataP5ArrayIT_E(ptr noundef %0, ptr noundef %1) #1 comdat align 2 {
  %3 = alloca ptr, align 8
  %4 = alloca ptr, align 8
  %5 = alloca i32, align 4
  store ptr %0, ptr %3, align 8
  store ptr %1, ptr %4, align 8
  %6 = load ptr, ptr %4, align 8
  %7 = icmp ne ptr %6, null
  br i1 %7, label %8, label %16

8:                                                ; preds = %2
  %9 = load ptr, ptr %4, align 8
  %10 = call noundef i32 @_ZN5ArrayIhE4sizeEv(ptr noundef nonnull align 4 dereferenceable(5) %9)
  store i32 %10, ptr %5, align 4
  %11 = load ptr, ptr %3, align 8
  %12 = call noundef ptr @_ZN15ClassLoaderData18metaspace_non_nullEv(ptr noundef nonnull align 8 dereferenceable(160) %11)
  %13 = load ptr, ptr %4, align 8
  %14 = load i32, ptr %5, align 4
  %15 = sext i32 %14 to i64
  call void @_ZN20ClassLoaderMetaspace10deallocateEPP12MetaWordImplmb(ptr noundef nonnull align 8 dereferenceable(32) %12, ptr noundef %13, i64 noundef %15, i1 noundef zeroext false)
  br label %16

16:                                               ; preds = %8, %2
  ret void
}

; Function Attrs: mustprogress nounwind uwtable
define linkonce_odr hidden noundef ptr @_ZNK15RecordComponent11annotationsEv(ptr noundef nonnull align 8 dereferenceable(22) %0) #1 comdat align 2 {
  %2 = alloca ptr, align 8
  store ptr %0, ptr %2, align 8
  %3 = load ptr, ptr %2, align 8
  %4 = getelementptr inbounds %class.RecordComponent, ptr %3, i32 0, i32 0
  %5 = load ptr, ptr %4, align 8
  ret ptr %5
}

; Function Attrs: mustprogress nounwind uwtable
define hidden void @_ZN15RecordComponent19deallocate_contentsEP15ClassLoaderData(ptr noundef nonnull align 8 dereferenceable(22) %0, ptr noundef %1) #1 align 2 {
  %3 = alloca ptr, align 8
  %4 = alloca ptr, align 8
  store ptr %0, ptr %3, align 8
  store ptr %1, ptr %4, align 8
  %5 = load ptr, ptr %3, align 8
  %6 = call noundef ptr @_ZNK15RecordComponent11annotationsEv(ptr noundef nonnull align 8 dereferenceable(22) %5)
  %7 = icmp ne ptr %6, null
  br i1 %7, label %8, label %11

8:                                                ; preds = %2
  %9 = load ptr, ptr %4, align 8
  %10 = call noundef ptr @_ZNK15RecordComponent11annotationsEv(ptr noundef nonnull align 8 dereferenceable(22) %5)
  call void @_ZN15MetadataFactory10free_arrayIhEEvP15ClassLoaderDataP5ArrayIT_E(ptr noundef %9, ptr noundef %10)
  br label %11

11:                                               ; preds = %8, %2
  %12 = call noundef ptr @_ZNK15RecordComponent16type_annotationsEv(ptr noundef nonnull align 8 dereferenceable(22) %5)
  %13 = icmp ne ptr %12, null
  br i1 %13, label %14, label %17

14:                                               ; preds = %11
  %15 = load ptr, ptr %4, align 8
  %16 = call noundef ptr @_ZNK15RecordComponent16type_annotationsEv(ptr noundef nonnull align 8 dereferenceable(22) %5)
  call void @_ZN15MetadataFactory10free_arrayIhEEvP15ClassLoaderDataP5ArrayIT_E(ptr noundef %15, ptr noundef %16)
  br label %17

17:                                               ; preds = %14, %11
  ret void
}