; Function Attrs: mustprogress nounwind uwtable
define hidden void @_ZN15RecordComponent19deallocate_contentsEP15ClassLoaderData(ptr nocapture noundef nonnull readonly align 8 dereferenceable(22) %0, ptr noundef %1) local_unnamed_addr #0 align 2 {
  %3 = load ptr, ptr %0, align 8
  %.not = icmp eq ptr %3, null
  br i1 %.not, label %9, label %_ZN15MetadataFactory10free_arrayIhEEvP15ClassLoaderDataP5ArrayIT_E.exit

_ZN15MetadataFactory10free_arrayIhEEvP15ClassLoaderDataP5ArrayIT_E.exit: ; preds = %2
  %4 = load i32, ptr %3, align 4
  %5 = tail call i32 @llvm.smax.i32(i32 %4, i32 1)
  %narrow.i.i.i = add nuw i32 %5, 14
  %6 = lshr i32 %narrow.i.i.i, 3
  %7 = tail call noundef ptr @_ZN15ClassLoaderData18metaspace_non_nullEv(ptr noundef nonnull align 8 dereferenceable(160) %1) #7
  %8 = zext nneg i32 %6 to i64
  tail call void @_ZN20ClassLoaderMetaspace10deallocateEPP12MetaWordImplmb(ptr noundef nonnull align 8 dereferenceable(32) %7, ptr noundef nonnull %3, i64 noundef %8, i1 noundef zeroext false) #7
  br label %9

9:                                                ; preds = %_ZN15MetadataFactory10free_arrayIhEEvP15ClassLoaderDataP5ArrayIT_E.exit, %2
  %10 = getelementptr inbounds i8, ptr %0, i64 8
  %11 = load ptr, ptr %10, align 8
  %.not3 = icmp eq ptr %11, null
  br i1 %.not3, label %17, label %_ZN15MetadataFactory10free_arrayIhEEvP15ClassLoaderDataP5ArrayIT_E.exit6

_ZN15MetadataFactory10free_arrayIhEEvP15ClassLoaderDataP5ArrayIT_E.exit6: ; preds = %9
  %12 = load i32, ptr %11, align 4
  %13 = tail call i32 @llvm.smax.i32(i32 %12, i32 1)
  %narrow.i.i.i5 = add nuw i32 %13, 14
  %14 = lshr i32 %narrow.i.i.i5, 3
  %15 = tail call noundef ptr @_ZN15ClassLoaderData18metaspace_non_nullEv(ptr noundef nonnull align 8 dereferenceable(160) %1) #7
  %16 = zext nneg i32 %14 to i64
  tail call void @_ZN20ClassLoaderMetaspace10deallocateEPP12MetaWordImplmb(ptr noundef nonnull align 8 dereferenceable(32) %15, ptr noundef nonnull %11, i64 noundef %16, i1 noundef zeroext false) #7
  br label %17

17:                                               ; preds = %_ZN15MetadataFactory10free_arrayIhEEvP15ClassLoaderDataP5ArrayIT_E.exit6, %9
  ret void
}